; Function Attrs: mustprogress uwtable
define void @grpc_auth_context_peer_identity(ptr noalias nocapture writeonly sret(%struct.grpc_auth_property_iterator) align 8 %agg.result, ptr noundef %ctx) local_unnamed_addr #4 personality ptr @__gxx_personality_v0 {
entry:
  %0 = load atomic i8, ptr getelementptr inbounds (%"class.grpc_core::TraceFlag", ptr @grpc_api_trace, i64 0, i32 2, i32 0, i32 0) monotonic, align 8
  %1 = and i8 %0, 1
  %tobool.i.i.i.not = icmp eq i8 %1, 0
  br i1 %tobool.i.i.i.not, label %if.end, label %if.then

if.then:                                          ; preds = %entry
  tail call void (ptr, i32, i32, ptr, ...) @gpr_log(ptr noundef nonnull @.str, i32 noundef 219, i32 noundef 1, ptr noundef nonnull @.str.19, ptr noundef %ctx)
  br label %if.end

if.end:                                           ; preds = %if.then, %entry
  %cmp = icmp eq ptr %ctx, null
  br i1 %cmp, label %if.then1, label %if.end2

if.then1:                                         ; preds = %if.end
  tail call void @llvm.memset.p0.i64(ptr noundef nonnull align 8 dereferenceable(24) %agg.result, i8 0, i64 24, i1 false)
  br label %return

if.end2:                                          ; preds = %if.end
  %peer_identity_property_name_.i = getelementptr inbounds i8, ptr %ctx, i64 40
  %2 = load ptr, ptr %peer_identity_property_name_.i, align 8
  tail call void @llvm.experimental.noalias.scope.decl(metadata !20)
  %3 = load atomic i8, ptr getelementptr inbounds (%"class.grpc_core::TraceFlag", ptr @grpc_api_trace, i64 0, i32 2, i32 0, i32 0) monotonic, align 8, !noalias !20
  %4 = and i8 %3, 1
  %tobool.i.i.i.not.i = icmp eq i8 %4, 0
  br i1 %tobool.i.i.i.not.i, label %if.end.i, label %if.then.i

if.then.i:                                        ; preds = %if.end2
  tail call void (ptr, i32, i32, ptr, ...) @gpr_log(ptr noundef nonnull @.str, i32 noundef 210, i32 noundef 1, ptr noundef nonnull @.str.18, ptr noundef nonnull %ctx, ptr noundef %2), !noalias !20
  br label %if.end.i

if.end.i:                                         ; preds = %if.then.i, %if.end2
  %cmp1.i = icmp eq ptr %2, null
  br i1 %cmp1.i, label %if.then2.i, label %if.end3.i

if.then2.i:                                       ; preds = %if.end.i
  tail call void @llvm.memset.p0.i64(ptr noundef nonnull align 8 dereferenceable(24) %agg.result, i8 0, i64 24, i1 false), !alias.scope !20
  br label %return

if.end3.i:                                        ; preds = %if.end.i
  store ptr %ctx, ptr %agg.result, align 8, !alias.scope !20
  %it.sroa.3.0.agg.result.sroa_idx.i = getelementptr inbounds i8, ptr %agg.result, i64 8
  store i64 0, ptr %it.sroa.3.0.agg.result.sroa_idx.i, align 8, !alias.scope !20
  %it.sroa.33.0.agg.result.sroa_idx.i = getelementptr inbounds i8, ptr %agg.result, i64 16
  store ptr %2, ptr %it.sroa.33.0.agg.result.sroa_idx.i, align 8, !alias.scope !20
  br label %return

return:                                           ; preds = %if.end3.i, %if.then2.i, %if.then1
  ret void
}